; ModuleID = '27/423.c'
source_filename = "27/423.c"
target datalayout = "e-m:e-p270:32:32-p271:32:32-p272:64:64-i64:64-f80:128-n8:16:32:64-S128"
target triple = "x86_64-pc-linux-gnu"

@.str = private unnamed_addr constant [3 x i8] c"%d\00", align 1
@.str.1 = private unnamed_addr constant [10 x i8] c"%lf%lf%lf\00", align 1
@.str.2 = private unnamed_addr constant [17 x i8] c"x1=%.5f;x2=%.5f\0A\00", align 1
@.str.3 = private unnamed_addr constant [12 x i8] c"x1=x2=%.5f\0A\00", align 1
@.str.4 = private unnamed_addr constant [29 x i8] c"x1=%.5f+%.5fi;x2=%.5f-%.5fi\0A\00", align 1

; Function Attrs: noinline nounwind uwtable
define dso_local i32 @main() #0 {
  %1 = alloca i32, align 4
  %2 = alloca i32, align 4
  %3 = alloca i32, align 4
  %4 = alloca double, align 8
  %5 = alloca double, align 8
  %6 = alloca double, align 8
  %7 = alloca double, align 8
  store i32 0, i32* %1, align 4
  %8 = call i32 (i8*, ...) @__isoc99_scanf(i8* getelementptr inbounds ([3 x i8], [3 x i8]* @.str, i64 0, i64 0), i32* %2)
  store i32 1, i32* %3, align 4
  br label %9

9:                                                ; preds = %79, %0
  %10 = load i32, i32* %3, align 4
  %11 = load i32, i32* %2, align 4
  %12 = icmp sle i32 %10, %11
  br i1 %12, label %13, label %82

13:                                               ; preds = %9
  %14 = call i32 (i8*, ...) @__isoc99_scanf(i8* getelementptr inbounds ([10 x i8], [10 x i8]* @.str.1, i64 0, i64 0), double* %4, double* %5, double* %6)
  %15 = load double, double* %5, align 8
  %16 = load double, double* %5, align 8
  %17 = fmul double %15, %16
  %18 = load double, double* %4, align 8
  %19 = fmul double 4.000000e+00, %18
  %20 = load double, double* %6, align 8
  %21 = fmul double %19, %20
  %22 = fsub double %17, %21
  store double %22, double* %7, align 8
  %23 = load double, double* %7, align 8
  %24 = fcmp ogt double %23, 0.000000e+00
  br i1 %24, label %25, label %43

25:                                               ; preds = %13
  %26 = load double, double* %5, align 8
  %27 = fneg double %26
  %28 = load double, double* %7, align 8
  %29 = call double @sqrt(double %28) #3
  %30 = fadd double %27, %29
  %31 = fdiv double %30, 2.000000e+00
  %32 = load double, double* %4, align 8
  %33 = fdiv double %31, %32
  %34 = load double, double* %5, align 8
  %35 = fneg double %34
  %36 = load double, double* %7, align 8
  %37 = call double @sqrt(double %36) #3
  %38 = fsub double %35, %37
  %39 = fdiv double %38, 2.000000e+00
  %40 = load double, double* %4, align 8
  %41 = fdiv double %39, %40
  %42 = call i32 (i8*, ...) @printf(i8* getelementptr inbounds ([17 x i8], [17 x i8]* @.str.2, i64 0, i64 0), double %33, double %41)
  br label %78

43:                                               ; preds = %13
  %44 = load double, double* %7, align 8
  %45 = fcmp oeq double %44, 0.000000e+00
  br i1 %45, label %46, label %53

46:                                               ; preds = %43
  %47 = load double, double* %5, align 8
  %48 = fneg double %47
  %49 = fdiv double %48, 2.000000e+00
  %50 = load double, double* %4, align 8
  %51 = fdiv double %49, %50
  %52 = call i32 (i8*, ...) @printf(i8* getelementptr inbounds ([12 x i8], [12 x i8]* @.str.3, i64 0, i64 0), double %51)
  br label %77

53:                                               ; preds = %43
  %54 = load double, double* %5, align 8
  %55 = fneg double %54
  %56 = fdiv double %55, 2.000000e+00
  %57 = load double, double* %4, align 8
  %58 = fdiv double %56, %57
  %59 = load double, double* %7, align 8
  %60 = fneg double %59
  %61 = call double @sqrt(double %60) #3
  %62 = fdiv double %61, 2.000000e+00
  %63 = load double, double* %4, align 8
  %64 = fdiv double %62, %63
  %65 = load double, double* %5, align 8
  %66 = fneg double %65
  %67 = fdiv double %66, 2.000000e+00
  %68 = load double, double* %4, align 8
  %69 = fdiv double %67, %68
  %70 = load double, double* %7, align 8
  %71 = fneg double %70
  %72 = call double @sqrt(double %71) #3
  %73 = fdiv double %72, 2.000000e+00
  %74 = load double, double* %4, align 8
  %75 = fdiv double %73, %74
  %76 = call i32 (i8*, ...) @printf(i8* getelementptr inbounds ([29 x i8], [29 x i8]* @.str.4, i64 0, i64 0), double %58, double %64, double %69, double %75)
  br label %77

77:                                               ; preds = %53, %46
  br label %78

78:                                               ; preds = %77, %25
  br label %79

79:                                               ; preds = %78
  %80 = load i32, i32* %3, align 4
  %81 = add nsw i32 %80, 1
  store i32 %81, i32* %3, align 4
  br label %9

82:                                               ; preds = %9
  ret i32 0
}

declare dso_local i32 @__isoc99_scanf(i8*, ...) #1

declare dso_local i32 @printf(i8*, ...) #1

; Function Attrs: nounwind
declare dso_local double @sqrt(double) #2


!llvm.module.flags = !{!0}
!llvm.ident = !{!1}

!0 = !{i32 1, !"wchar_size", i32 4}
!1 = !{!"clang version 10.0.0-4ubuntu1 "}
